target datalayout = "e-m:e-p270:32:32-p271:32:32-p272:64:64-i64:64-i128:128-f80:128-n8:16:32:64-S128"
target triple = "x86_64-pc-linux-gnu"

%"class.clang::consumed::ConsumedStateMap" = type { i8, ptr, %"class.llvm::DenseMap.26", %"class.llvm::DenseMap.29" }
%"class.llvm::DenseMap.26" = type <{ ptr, i32, i32, i32, [4 x i8] }>
%"class.llvm::DenseMap.29" = type <{ ptr, i32, i32, i32, [4 x i8] }>
%"struct.std::pair.91" = type <{ ptr, i32, [4 x i8] }>
%"struct.llvm::detail::DenseMapPair.90" = type { %"struct.std::pair.base.93", [4 x i8] }
%"struct.std::pair.base.93" = type <{ ptr, i32 }>

; Function Attrs: mustprogress nounwind uwtable
define linkonce_odr hidden noundef i32 @_ZN4llvm12DenseMapInfoIPKN5clang7VarDeclEvE12getHashValueES4_(ptr noundef %0) #0 comdat align 2 {
  %2 = alloca ptr, align 8
  store ptr %0, ptr %2, align 8
  %3 = load ptr, ptr %2, align 8
  %4 = ptrtoint ptr %3 to i64
  %5 = trunc i64 %4 to i32
  %6 = lshr i32 %5, 4
  %7 = load ptr, ptr %2, align 8
  %8 = ptrtoint ptr %7 to i64
  %9 = trunc i64 %8 to i32
  %10 = lshr i32 %9, 9
  %11 = xor i32 %6, %10
  ret i32 %11
}

; Function Attrs: mustprogress nounwind uwtable
define linkonce_odr hidden noundef ptr @_ZN4llvm12DenseMapInfoIPKN5clang7VarDeclEvE15getTombstoneKeyEv() #0 comdat align 2 {
  %1 = alloca i64, align 8
  store i64 -2, ptr %1, align 8
  %2 = load i64, ptr %1, align 8
  %3 = shl i64 %2, 12
  store i64 %3, ptr %1, align 8
  %4 = load i64, ptr %1, align 8
  %5 = inttoptr i64 %4 to ptr
  ret ptr %5
}

; Function Attrs: mustprogress nounwind uwtable
define linkonce_odr hidden noundef ptr @_ZN4llvm12DenseMapInfoIPKN5clang7VarDeclEvE11getEmptyKeyEv() #0 comdat align 2 {
  %1 = alloca i64, align 8
  store i64 -1, ptr %1, align 8
  %2 = load i64, ptr %1, align 8
  %3 = shl i64 %2, 12
  store i64 %3, ptr %1, align 8
  %4 = load i64, ptr %1, align 8
  %5 = inttoptr i64 %4 to ptr
  ret ptr %5
}

; Function Attrs: mustprogress nounwind uwtable
define linkonce_odr hidden noundef i32 @_ZNK4llvm8DenseMapIPKN5clang7VarDeclENS1_8consumed13ConsumedStateENS_12DenseMapInfoIS4_vEENS_6detail12DenseMapPairIS4_S6_EEE13getNumBucketsEv(ptr noundef nonnull align 8 dereferenceable(20) %0) #0 comdat align 2 {
  %2 = alloca ptr, align 8
  store ptr %0, ptr %2, align 8
  %3 = load ptr, ptr %2, align 8
  %4 = getelementptr inbounds nuw %"class.llvm::DenseMap.26", ptr %3, i32 0, i32 3
  %5 = load i32, ptr %4, align 8
  ret i32 %5
}

; Function Attrs: mustprogress nounwind uwtable
define linkonce_odr hidden noundef ptr @_ZNK4llvm8DenseMapIPKN5clang7VarDeclENS1_8consumed13ConsumedStateENS_12DenseMapInfoIS4_vEENS_6detail12DenseMapPairIS4_S6_EEE10getBucketsEv(ptr noundef nonnull align 8 dereferenceable(20) %0) #0 comdat align 2 {
  %2 = alloca ptr, align 8
  store ptr %0, ptr %2, align 8
  %3 = load ptr, ptr %2, align 8
  %4 = getelementptr inbounds nuw %"class.llvm::DenseMap.26", ptr %3, i32 0, i32 0
  %5 = load ptr, ptr %4, align 8
  ret ptr %5
}

; Function Attrs: mustprogress nounwind uwtable
define linkonce_odr hidden noundef zeroext i1 @_ZN4llvm12DenseMapInfoIPKN5clang7VarDeclEvE7isEqualES4_S4_(ptr noundef %0, ptr noundef %1) #0 comdat align 2 {
  %3 = alloca ptr, align 8
  %4 = alloca ptr, align 8
  store ptr %0, ptr %3, align 8
  store ptr %1, ptr %4, align 8
  %5 = load ptr, ptr %3, align 8
  %6 = load ptr, ptr %4, align 8
  %7 = icmp eq ptr %5, %6
  ret i1 %7
}

; Function Attrs: mustprogress nounwind uwtable
define linkonce_odr hidden noundef nonnull align 8 dereferenceable(8) ptr @_ZNK4llvm6detail12DenseMapPairIPKN5clang7VarDeclENS2_8consumed13ConsumedStateEE8getFirstEv(ptr noundef nonnull align 8 dereferenceable(12) %0) #0 comdat align 2 {
  %2 = alloca ptr, align 8
  store ptr %0, ptr %2, align 8
  %3 = load ptr, ptr %2, align 8
  %4 = getelementptr inbounds nuw %"struct.std::pair.91", ptr %3, i32 0, i32 0
  ret ptr %4
}

; Function Attrs: mustprogress nounwind uwtable
define linkonce_odr hidden noundef i32 @_ZN4llvm12DenseMapBaseINS_8DenseMapIPKN5clang7VarDeclENS2_8consumed13ConsumedStateENS_12DenseMapInfoIS5_vEENS_6detail12DenseMapPairIS5_S7_EEEES5_S7_S9_SC_E12getHashValueERKS5_(ptr noundef nonnull align 8 dereferenceable(8) %0) #0 comdat align 2 {
  %2 = alloca ptr, align 8
  store ptr %0, ptr %2, align 8
  %3 = load ptr, ptr %2, align 8
  %4 = load ptr, ptr %3, align 8
  %5 = call noundef i32 @_ZN4llvm12DenseMapInfoIPKN5clang7VarDeclEvE12getHashValueES4_(ptr noundef %4)
  ret i32 %5
}

; Function Attrs: mustprogress nounwind uwtable
define linkonce_odr hidden noundef ptr @_ZN4llvm12DenseMapBaseINS_8DenseMapIPKN5clang7VarDeclENS2_8consumed13ConsumedStateENS_12DenseMapInfoIS5_vEENS_6detail12DenseMapPairIS5_S7_EEEES5_S7_S9_SC_E15getTombstoneKeyEv() #0 comdat align 2 {
  %1 = call noundef ptr @_ZN4llvm12DenseMapInfoIPKN5clang7VarDeclEvE15getTombstoneKeyEv()
  ret ptr %1
}

; Function Attrs: mustprogress nounwind uwtable
define linkonce_odr hidden noundef ptr @_ZN4llvm12DenseMapBaseINS_8DenseMapIPKN5clang7VarDeclENS2_8consumed13ConsumedStateENS_12DenseMapInfoIS5_vEENS_6detail12DenseMapPairIS5_S7_EEEES5_S7_S9_SC_E11getEmptyKeyEv() #0 comdat align 2 {
  %1 = call noundef ptr @_ZN4llvm12DenseMapInfoIPKN5clang7VarDeclEvE11getEmptyKeyEv()
  ret ptr %1
}

; Function Attrs: mustprogress nounwind uwtable
define linkonce_odr hidden noundef i32 @_ZNK4llvm12DenseMapBaseINS_8DenseMapIPKN5clang7VarDeclENS2_8consumed13ConsumedStateENS_12DenseMapInfoIS5_vEENS_6detail12DenseMapPairIS5_S7_EEEES5_S7_S9_SC_E13getNumBucketsEv(ptr noundef nonnull align 1 dereferenceable(1) %0) #0 comdat align 2 {
  %2 = alloca ptr, align 8
  store ptr %0, ptr %2, align 8
  %3 = load ptr, ptr %2, align 8
  %4 = call noundef i32 @_ZNK4llvm8DenseMapIPKN5clang7VarDeclENS1_8consumed13ConsumedStateENS_12DenseMapInfoIS4_vEENS_6detail12DenseMapPairIS4_S6_EEE13getNumBucketsEv(ptr noundef nonnull align 8 dereferenceable(20) %3)
  ret i32 %4
}

; Function Attrs: mustprogress nounwind uwtable
define linkonce_odr hidden noundef ptr @_ZNK4llvm12DenseMapBaseINS_8DenseMapIPKN5clang7VarDeclENS2_8consumed13ConsumedStateENS_12DenseMapInfoIS5_vEENS_6detail12DenseMapPairIS5_S7_EEEES5_S7_S9_SC_E10getBucketsEv(ptr noundef nonnull align 1 dereferenceable(1) %0) #0 comdat align 2 {
  %2 = alloca ptr, align 8
  store ptr %0, ptr %2, align 8
  %3 = load ptr, ptr %2, align 8
  %4 = call noundef ptr @_ZNK4llvm8DenseMapIPKN5clang7VarDeclENS1_8consumed13ConsumedStateENS_12DenseMapInfoIS4_vEENS_6detail12DenseMapPairIS4_S6_EEE10getBucketsEv(ptr noundef nonnull align 8 dereferenceable(20) %3)
  ret ptr %4
}

; Function Attrs: mustprogress nounwind uwtable
define linkonce_odr hidden noundef nonnull align 4 dereferenceable(4) ptr @_ZN4llvm6detail12DenseMapPairIPKN5clang7VarDeclENS2_8consumed13ConsumedStateEE9getSecondEv(ptr noundef nonnull align 8 dereferenceable(12) %0) #0 comdat align 2 {
  %2 = alloca ptr, align 8
  store ptr %0, ptr %2, align 8
  %3 = load ptr, ptr %2, align 8
  %4 = getelementptr inbounds nuw %"struct.std::pair.91", ptr %3, i32 0, i32 1
  ret ptr %4
}

; Function Attrs: mustprogress nounwind uwtable
define linkonce_odr hidden noundef nonnull align 8 dereferenceable(8) ptr @_ZN4llvm6detail12DenseMapPairIPKN5clang7VarDeclENS2_8consumed13ConsumedStateEE8getFirstEv(ptr noundef nonnull align 8 dereferenceable(12) %0) #0 comdat align 2 {
  %2 = alloca ptr, align 8
  store ptr %0, ptr %2, align 8
  %3 = load ptr, ptr %2, align 8
  %4 = getelementptr inbounds nuw %"struct.std::pair.91", ptr %3, i32 0, i32 0
  ret ptr %4
}

; Function Attrs: mustprogress nounwind uwtable
define linkonce_odr hidden noundef zeroext i1 @_ZNK4llvm12DenseMapBaseINS_8DenseMapIPKN5clang7VarDeclENS2_8consumed13ConsumedStateENS_12DenseMapInfoIS5_vEENS_6detail12DenseMapPairIS5_S7_EEEES5_S7_S9_SC_E15LookupBucketForIS5_EEbRKT_RPKSC_(ptr noundef nonnull align 1 dereferenceable(1) %0, ptr noundef nonnull align 8 dereferenceable(8) %1, ptr noundef nonnull align 8 dereferenceable(8) %2) #0 comdat align 2 {
  %4 = alloca i1, align 1
  %5 = alloca ptr, align 8
  %6 = alloca ptr, align 8
  %7 = alloca ptr, align 8
  %8 = alloca ptr, align 8
  %9 = alloca i32, align 4
  %10 = alloca ptr, align 8
  %11 = alloca ptr, align 8
  %12 = alloca ptr, align 8
  %13 = alloca i32, align 4
  %14 = alloca i32, align 4
  %15 = alloca ptr, align 8
  store ptr %0, ptr %5, align 8
  store ptr %1, ptr %6, align 8
  store ptr %2, ptr %7, align 8
  %16 = load ptr, ptr %5, align 8
  %17 = call noundef ptr @_ZNK4llvm12DenseMapBaseINS_8DenseMapIPKN5clang7VarDeclENS2_8consumed13ConsumedStateENS_12DenseMapInfoIS5_vEENS_6detail12DenseMapPairIS5_S7_EEEES5_S7_S9_SC_E10getBucketsEv(ptr noundef nonnull align 1 dereferenceable(1) %16)
  store ptr %17, ptr %8, align 8
  %18 = call noundef i32 @_ZNK4llvm12DenseMapBaseINS_8DenseMapIPKN5clang7VarDeclENS2_8consumed13ConsumedStateENS_12DenseMapInfoIS5_vEENS_6detail12DenseMapPairIS5_S7_EEEES5_S7_S9_SC_E13getNumBucketsEv(ptr noundef nonnull align 1 dereferenceable(1) %16)
  store i32 %18, ptr %9, align 4
  %19 = load i32, ptr %9, align 4
  %20 = icmp eq i32 %19, 0
  br i1 %20, label %21, label %23

21:                                               ; preds = %3
  %22 = load ptr, ptr %7, align 8
  store ptr null, ptr %22, align 8
  store i1 false, ptr %4, align 1
  br label %81

23:                                               ; preds = %3
  store ptr null, ptr %10, align 8
  %24 = call noundef ptr @_ZN4llvm12DenseMapBaseINS_8DenseMapIPKN5clang7VarDeclENS2_8consumed13ConsumedStateENS_12DenseMapInfoIS5_vEENS_6detail12DenseMapPairIS5_S7_EEEES5_S7_S9_SC_E11getEmptyKeyEv()
  store ptr %24, ptr %11, align 8
  %25 = call noundef ptr @_ZN4llvm12DenseMapBaseINS_8DenseMapIPKN5clang7VarDeclENS2_8consumed13ConsumedStateENS_12DenseMapInfoIS5_vEENS_6detail12DenseMapPairIS5_S7_EEEES5_S7_S9_SC_E15getTombstoneKeyEv()
  store ptr %25, ptr %12, align 8
  %26 = load ptr, ptr %6, align 8
  %27 = call noundef i32 @_ZN4llvm12DenseMapBaseINS_8DenseMapIPKN5clang7VarDeclENS2_8consumed13ConsumedStateENS_12DenseMapInfoIS5_vEENS_6detail12DenseMapPairIS5_S7_EEEES5_S7_S9_SC_E12getHashValueERKS5_(ptr noundef nonnull align 8 dereferenceable(8) %26)
  %28 = load i32, ptr %9, align 4
  %29 = sub i32 %28, 1
  %30 = and i32 %27, %29
  store i32 %30, ptr %13, align 4
  store i32 1, ptr %14, align 4
  br label %31

31:                                               ; preds = %72, %23
  %32 = load ptr, ptr %8, align 8
  %33 = load i32, ptr %13, align 4
  %34 = zext i32 %33 to i64
  %35 = getelementptr inbounds %"struct.llvm::detail::DenseMapPair.90", ptr %32, i64 %34
  store ptr %35, ptr %15, align 8
  %36 = load ptr, ptr %6, align 8
  %37 = load ptr, ptr %36, align 8
  %38 = load ptr, ptr %15, align 8
  %39 = call noundef nonnull align 8 dereferenceable(8) ptr @_ZNK4llvm6detail12DenseMapPairIPKN5clang7VarDeclENS2_8consumed13ConsumedStateEE8getFirstEv(ptr noundef nonnull align 8 dereferenceable(12) %38)
  %40 = load ptr, ptr %39, align 8
  %41 = call noundef zeroext i1 @_ZN4llvm12DenseMapInfoIPKN5clang7VarDeclEvE7isEqualES4_S4_(ptr noundef %37, ptr noundef %40)
  br i1 %41, label %42, label %45

42:                                               ; preds = %31
  %43 = load ptr, ptr %15, align 8
  %44 = load ptr, ptr %7, align 8
  store ptr %43, ptr %44, align 8
  store i1 true, ptr %4, align 1
  br label %81

45:                                               ; preds = %31
  %46 = load ptr, ptr %15, align 8
  %47 = call noundef nonnull align 8 dereferenceable(8) ptr @_ZNK4llvm6detail12DenseMapPairIPKN5clang7VarDeclENS2_8consumed13ConsumedStateEE8getFirstEv(ptr noundef nonnull align 8 dereferenceable(12) %46)
  %48 = load ptr, ptr %47, align 8
  %49 = load ptr, ptr %11, align 8
  %50 = call noundef zeroext i1 @_ZN4llvm12DenseMapInfoIPKN5clang7VarDeclEvE7isEqualES4_S4_(ptr noundef %48, ptr noundef %49)
  br i1 %50, label %51, label %61

51:                                               ; preds = %45
  %52 = load ptr, ptr %10, align 8
  %53 = icmp ne ptr %52, null
  br i1 %53, label %54, label %56

54:                                               ; preds = %51
  %55 = load ptr, ptr %10, align 8
  br label %58

56:                                               ; preds = %51
  %57 = load ptr, ptr %15, align 8
  br label %58

58:                                               ; preds = %56, %54
  %59 = phi ptr [ %55, %54 ], [ %57, %56 ]
  %60 = load ptr, ptr %7, align 8
  store ptr %59, ptr %60, align 8
  store i1 false, ptr %4, align 1
  br label %81

61:                                               ; preds = %45
  %62 = load ptr, ptr %15, align 8
  %63 = call noundef nonnull align 8 dereferenceable(8) ptr @_ZNK4llvm6detail12DenseMapPairIPKN5clang7VarDeclENS2_8consumed13ConsumedStateEE8getFirstEv(ptr noundef nonnull align 8 dereferenceable(12) %62)
  %64 = load ptr, ptr %63, align 8
  %65 = load ptr, ptr %12, align 8
  %66 = call noundef zeroext i1 @_ZN4llvm12DenseMapInfoIPKN5clang7VarDeclEvE7isEqualES4_S4_(ptr noundef %64, ptr noundef %65)
  br i1 %66, label %67, label %72

67:                                               ; preds = %61
  %68 = load ptr, ptr %10, align 8
  %69 = icmp ne ptr %68, null
  br i1 %69, label %72, label %70

70:                                               ; preds = %67
  %71 = load ptr, ptr %15, align 8
  store ptr %71, ptr %10, align 8
  br label %72

72:                                               ; preds = %70, %67, %61
  %73 = load i32, ptr %14, align 4
  %74 = add i32 %73, 1
  store i32 %74, ptr %14, align 4
  %75 = load i32, ptr %13, align 4
  %76 = add i32 %75, %73
  store i32 %76, ptr %13, align 4
  %77 = load i32, ptr %9, align 4
  %78 = sub i32 %77, 1
  %79 = load i32, ptr %13, align 4
  %80 = and i32 %79, %78
  store i32 %80, ptr %13, align 4
  br label %31, !llvm.loop !49

81:                                               ; preds = %58, %42, %21
  %82 = load i1, ptr %4, align 1
  ret i1 %82
}

; Function Attrs: mustprogress nounwind uwtable
define linkonce_odr hidden noundef ptr @_ZN4llvm12DenseMapBaseINS_8DenseMapIPKN5clang7VarDeclENS2_8consumed13ConsumedStateENS_12DenseMapInfoIS5_vEENS_6detail12DenseMapPairIS5_S7_EEEES5_S7_S9_SC_E16InsertIntoBucketIRKS5_JEEEPSC_SI_OT_DpOT0_(ptr noundef nonnull align 1 dereferenceable(1) %0, ptr noundef %1, ptr noundef nonnull align 8 dereferenceable(8) %2) #0 comdat align 2 {
  %4 = alloca ptr, align 8
  %5 = alloca ptr, align 8
  %6 = alloca ptr, align 8
  store ptr %0, ptr %4, align 8
  store ptr %1, ptr %5, align 8
  store ptr %2, ptr %6, align 8
  %7 = load ptr, ptr %4, align 8
  %8 = load ptr, ptr %6, align 8
  %9 = load ptr, ptr %6, align 8
  %10 = load ptr, ptr %5, align 8
  %11 = call noundef ptr @_ZN4llvm12DenseMapBaseINS_8DenseMapIPKN5clang7VarDeclENS2_8consumed13ConsumedStateENS_12DenseMapInfoIS5_vEENS_6detail12DenseMapPairIS5_S7_EEEES5_S7_S9_SC_E20InsertIntoBucketImplIS5_EEPSC_RKS5_RKT_SG_(ptr noundef nonnull align 1 dereferenceable(1) %7, ptr noundef nonnull align 8 dereferenceable(8) %8, ptr noundef nonnull align 8 dereferenceable(8) %9, ptr noundef %10)
  store ptr %11, ptr %5, align 8
  %12 = load ptr, ptr %6, align 8
  %13 = load ptr, ptr %12, align 8
  %14 = load ptr, ptr %5, align 8
  %15 = call noundef nonnull align 8 dereferenceable(8) ptr @_ZN4llvm6detail12DenseMapPairIPKN5clang7VarDeclENS2_8consumed13ConsumedStateEE8getFirstEv(ptr noundef nonnull align 8 dereferenceable(12) %14)
  store ptr %13, ptr %15, align 8
  %16 = load ptr, ptr %5, align 8
  %17 = call noundef nonnull align 4 dereferenceable(4) ptr @_ZN4llvm6detail12DenseMapPairIPKN5clang7VarDeclENS2_8consumed13ConsumedStateEE9getSecondEv(ptr noundef nonnull align 8 dereferenceable(12) %16)
  store i32 0, ptr %17, align 4
  %18 = load ptr, ptr %5, align 8
  ret ptr %18
}

; Function Attrs: mustprogress nounwind uwtable
define linkonce_odr hidden noundef zeroext i1 @_ZN4llvm12DenseMapBaseINS_8DenseMapIPKN5clang7VarDeclENS2_8consumed13ConsumedStateENS_12DenseMapInfoIS5_vEENS_6detail12DenseMapPairIS5_S7_EEEES5_S7_S9_SC_E15LookupBucketForIS5_EEbRKT_RPSC_(ptr noundef nonnull align 1 dereferenceable(1) %0, ptr noundef nonnull align 8 dereferenceable(8) %1, ptr noundef nonnull align 8 dereferenceable(8) %2) #0 comdat align 2 {
  %4 = alloca ptr, align 8
  %5 = alloca ptr, align 8
  %6 = alloca ptr, align 8
  %7 = alloca ptr, align 8
  %8 = alloca i8, align 1
  store ptr %0, ptr %4, align 8
  store ptr %1, ptr %5, align 8
  store ptr %2, ptr %6, align 8
  %9 = load ptr, ptr %4, align 8
  %10 = load ptr, ptr %5, align 8
  %11 = call noundef zeroext i1 @_ZNK4llvm12DenseMapBaseINS_8DenseMapIPKN5clang7VarDeclENS2_8consumed13ConsumedStateENS_12DenseMapInfoIS5_vEENS_6detail12DenseMapPairIS5_S7_EEEES5_S7_S9_SC_E15LookupBucketForIS5_EEbRKT_RPKSC_(ptr noundef nonnull align 1 dereferenceable(1) %9, ptr noundef nonnull align 8 dereferenceable(8) %10, ptr noundef nonnull align 8 dereferenceable(8) %7)
  %12 = zext i1 %11 to i8
  store i8 %12, ptr %8, align 1
  %13 = load ptr, ptr %7, align 8
  %14 = load ptr, ptr %6, align 8
  store ptr %13, ptr %14, align 8
  %15 = load i8, ptr %8, align 1
  %16 = trunc i8 %15 to i1
  ret i1 %16
}

; Function Attrs: mustprogress nounwind uwtable
define linkonce_odr hidden noundef nonnull align 8 dereferenceable(12) ptr @_ZN4llvm12DenseMapBaseINS_8DenseMapIPKN5clang7VarDeclENS2_8consumed13ConsumedStateENS_12DenseMapInfoIS5_vEENS_6detail12DenseMapPairIS5_S7_EEEES5_S7_S9_SC_E16FindAndConstructERKS5_(ptr noundef nonnull align 1 dereferenceable(1) %0, ptr noundef nonnull align 8 dereferenceable(8) %1) #0 comdat align 2 {
  %3 = alloca ptr, align 8
  %4 = alloca ptr, align 8
  %5 = alloca ptr, align 8
  %6 = alloca ptr, align 8
  store ptr %0, ptr %4, align 8
  store ptr %1, ptr %5, align 8
  %7 = load ptr, ptr %4, align 8
  %8 = load ptr, ptr %5, align 8
  %9 = call noundef zeroext i1 @_ZN4llvm12DenseMapBaseINS_8DenseMapIPKN5clang7VarDeclENS2_8consumed13ConsumedStateENS_12DenseMapInfoIS5_vEENS_6detail12DenseMapPairIS5_S7_EEEES5_S7_S9_SC_E15LookupBucketForIS5_EEbRKT_RPSC_(ptr noundef nonnull align 1 dereferenceable(1) %7, ptr noundef nonnull align 8 dereferenceable(8) %8, ptr noundef nonnull align 8 dereferenceable(8) %6)
  br i1 %9, label %10, label %12

10:                                               ; preds = %2
  %11 = load ptr, ptr %6, align 8
  store ptr %11, ptr %3, align 8
  br label %16

12:                                               ; preds = %2
  %13 = load ptr, ptr %6, align 8
  %14 = load ptr, ptr %5, align 8
  %15 = call noundef ptr @_ZN4llvm12DenseMapBaseINS_8DenseMapIPKN5clang7VarDeclENS2_8consumed13ConsumedStateENS_12DenseMapInfoIS5_vEENS_6detail12DenseMapPairIS5_S7_EEEES5_S7_S9_SC_E16InsertIntoBucketIRKS5_JEEEPSC_SI_OT_DpOT0_(ptr noundef nonnull align 1 dereferenceable(1) %7, ptr noundef %13, ptr noundef nonnull align 8 dereferenceable(8) %14)
  store ptr %15, ptr %3, align 8
  br label %16

16:                                               ; preds = %12, %10
  %17 = load ptr, ptr %3, align 8
  ret ptr %17
}

; Function Attrs: mustprogress nounwind uwtable
define linkonce_odr hidden noundef nonnull align 4 dereferenceable(4) ptr @_ZN4llvm12DenseMapBaseINS_8DenseMapIPKN5clang7VarDeclENS2_8consumed13ConsumedStateENS_12DenseMapInfoIS5_vEENS_6detail12DenseMapPairIS5_S7_EEEES5_S7_S9_SC_EixERKS5_(ptr noundef nonnull align 1 dereferenceable(1) %0, ptr noundef nonnull align 8 dereferenceable(8) %1) #0 comdat align 2 {
  %3 = alloca ptr, align 8
  %4 = alloca ptr, align 8
  store ptr %0, ptr %3, align 8
  store ptr %1, ptr %4, align 8
  %5 = load ptr, ptr %3, align 8
  %6 = load ptr, ptr %4, align 8
  %7 = call noundef nonnull align 8 dereferenceable(12) ptr @_ZN4llvm12DenseMapBaseINS_8DenseMapIPKN5clang7VarDeclENS2_8consumed13ConsumedStateENS_12DenseMapInfoIS5_vEENS_6detail12DenseMapPairIS5_S7_EEEES5_S7_S9_SC_E16FindAndConstructERKS5_(ptr noundef nonnull align 1 dereferenceable(1) %5, ptr noundef nonnull align 8 dereferenceable(8) %6)
  %8 = getelementptr inbounds nuw %"struct.std::pair.91", ptr %7, i32 0, i32 1
  ret ptr %8
}

; Function Attrs: mustprogress nounwind uwtable
define dso_local void @_ZN5clang8consumed16ConsumedStateMap8setStateEPKNS_7VarDeclENS0_13ConsumedStateE(ptr noundef nonnull align 8 dereferenceable(64) %0, ptr noundef %1, i32 noundef %2) #0 align 2 {
  %4 = alloca ptr, align 8
  %5 = alloca ptr, align 8
  %6 = alloca i32, align 4
  store ptr %0, ptr %4, align 8
  store ptr %1, ptr %5, align 8
  store i32 %2, ptr %6, align 4
  %7 = load ptr, ptr %4, align 8
  %8 = load i32, ptr %6, align 4
  %9 = getelementptr inbounds nuw %"class.clang::consumed::ConsumedStateMap", ptr %7, i32 0, i32 2
  %10 = call noundef nonnull align 4 dereferenceable(4) ptr @_ZN4llvm12DenseMapBaseINS_8DenseMapIPKN5clang7VarDeclENS2_8consumed13ConsumedStateENS_12DenseMapInfoIS5_vEENS_6detail12DenseMapPairIS5_S7_EEEES5_S7_S9_SC_EixERKS5_(ptr noundef nonnull align 1 dereferenceable(1) %9, ptr noundef nonnull align 8 dereferenceable(8) %5)
  store i32 %8, ptr %10, align 4
  ret void
}